#include <math.h>
#include <stdio.h>
#include <stdlib.h>
#include <string.h>

int main()
{
int n,a=0;
scanf("%d",&n);
while(n<100&&n>0)
{
if(n%7!=0&&n%10!=7&&n/10!=7)
{
	a=a+n*n;
n=n-1;
}
else
{
n=n-1;
}
}
printf("%d\n",a);
return 0;
}
