; ModuleID = 'source-C-CXX/29/1096.c'
source_filename = "source-C-CXX/29/1096.c"
target datalayout = "e-m:e-p270:32:32-p271:32:32-p272:64:64-i64:64-f80:128-n8:16:32:64-S128"
target triple = "x86_64-pc-linux-gnu"

@.str = private unnamed_addr constant [3 x i8] c"%d\00", align 1
@.str.1 = private unnamed_addr constant [4 x i8] c"%d\0A\00", align 1

; Function Attrs: nofree nounwind sspstrong uwtable
define dso_local i32 @main() local_unnamed_addr #0 {
  %1 = alloca i32, align 4
  %2 = bitcast i32* %1 to i8*
  call void @llvm.lifetime.start.p0i8(i64 4, i8* nonnull %2) #3
  %3 = call i32 (i8*, ...) @__isoc99_scanf(i8* getelementptr inbounds ([3 x i8], [3 x i8]* @.str, i64 0, i64 0), i32* nonnull %1)
  %4 = load i32, i32* %1, align 4, !tbaa !5
  %5 = add i32 %4, -1
  %6 = icmp ult i32 %5, 99
  br i1 %6, label %7, label %26

7:                                                ; preds = %0, %7
  %8 = phi i32 [ %23, %7 ], [ %5, %0 ]
  %9 = phi i32 [ %8, %7 ], [ %4, %0 ]
  %10 = phi i32 [ %22, %7 ], [ 0, %0 ]
  %11 = trunc i32 %9 to i8
  %12 = urem i8 %11, 7
  %13 = icmp eq i8 %12, 0
  %14 = urem i8 %11, 10
  %15 = icmp eq i8 %14, 7
  %16 = or i1 %13, %15
  %17 = add nsw i32 %9, -70
  %18 = icmp ult i32 %17, 10
  %19 = select i1 %16, i1 true, i1 %18
  %20 = mul nuw nsw i32 %9, %9
  %21 = select i1 %19, i32 0, i32 %20
  %22 = add nuw nsw i32 %21, %10
  %23 = add nsw i32 %8, -1
  %24 = icmp ult i32 %23, 99
  br i1 %24, label %7, label %25, !llvm.loop !9

25:                                               ; preds = %7
  store i32 %8, i32* %1, align 4, !tbaa !5
  br label %26

26:                                               ; preds = %25, %0
  %27 = phi i32 [ %22, %25 ], [ 0, %0 ]
  %28 = call i32 (i8*, ...) @printf(i8* nonnull dereferenceable(1) getelementptr inbounds ([4 x i8], [4 x i8]* @.str.1, i64 0, i64 0), i32 %27)
  call void @llvm.lifetime.end.p0i8(i64 4, i8* nonnull %2) #3
  ret i32 0
}

; Function Attrs: argmemonly mustprogress nofree nosync nounwind willreturn
declare void @llvm.lifetime.start.p0i8(i64 immarg, i8* nocapture) #1

; Function Attrs: nofree nounwind
declare noundef i32 @__isoc99_scanf(i8* nocapture noundef readonly, ...) local_unnamed_addr #2

; Function Attrs: nofree nounwind
declare noundef i32 @printf(i8* nocapture noundef readonly, ...) local_unnamed_addr #2

; Function Attrs: argmemonly mustprogress nofree nosync nounwind willreturn
declare void @llvm.lifetime.end.p0i8(i64 immarg, i8* nocapture) #1


!llvm.module.flags = !{!0, !1, !2, !3}
!llvm.ident = !{!4}

!0 = !{i32 1, !"wchar_size", i32 4}
!1 = !{i32 7, !"PIC Level", i32 2}
!2 = !{i32 7, !"PIE Level", i32 2}
!3 = !{i32 7, !"uwtable", i32 1}
!4 = !{!"clang version 13.0.0"}
!5 = !{!6, !6, i64 0}
!6 = !{!"int", !7, i64 0}
!7 = !{!"omnipotent char", !8, i64 0}
!8 = !{!"Simple C/C++ TBAA"}
!9 = distinct !{!9, !10}
!10 = !{!"llvm.loop.mustprogress"}
